target datalayout = "e-m:e-p270:32:32-p271:32:32-p272:64:64-i64:64-i128:128-f80:128-n8:16:32:64-S128"
target triple = "x86_64-pc-linux-gnu"

%struct.AVProbeData = type { ptr, ptr, i32, ptr }

; Function Attrs: nounwind uwtable
define internal i32 @epaf_probe(ptr noundef %0) #0 {
  %2 = alloca i32, align 4
  %3 = alloca ptr, align 8
  store ptr %0, ptr %3, align 8, !tbaa !4
  %4 = load ptr, ptr %3, align 8, !tbaa !4
  %5 = getelementptr inbounds nuw %struct.AVProbeData, ptr %4, i32 0, i32 1
  %6 = load ptr, ptr %5, align 8, !tbaa !9
  %7 = load i32, ptr %6, align 1, !tbaa !13
  %8 = icmp eq i32 %7, 544235878
  br i1 %8, label %9, label %16

9:                                                ; preds = %1
  %10 = load ptr, ptr %3, align 8, !tbaa !4
  %11 = getelementptr inbounds nuw %struct.AVProbeData, ptr %10, i32 0, i32 1
  %12 = load ptr, ptr %11, align 8, !tbaa !9
  %13 = getelementptr inbounds i8, ptr %12, i64 8
  %14 = load i32, ptr %13, align 1, !tbaa !13
  %15 = icmp eq i32 %14, 1
  br i1 %15, label %29, label %16

16:                                               ; preds = %9, %1
  %17 = load ptr, ptr %3, align 8, !tbaa !4
  %18 = getelementptr inbounds nuw %struct.AVProbeData, ptr %17, i32 0, i32 1
  %19 = load ptr, ptr %18, align 8, !tbaa !9
  %20 = load i32, ptr %19, align 1, !tbaa !13
  %21 = icmp eq i32 %20, 1717661728
  br i1 %21, label %22, label %51

22:                                               ; preds = %16
  %23 = load ptr, ptr %3, align 8, !tbaa !4
  %24 = getelementptr inbounds nuw %struct.AVProbeData, ptr %23, i32 0, i32 1
  %25 = load ptr, ptr %24, align 8, !tbaa !9
  %26 = getelementptr inbounds i8, ptr %25, i64 8
  %27 = load i32, ptr %26, align 1, !tbaa !13
  %28 = icmp eq i32 %27, 0
  br i1 %28, label %29, label %51

29:                                               ; preds = %22, %9
  %30 = load ptr, ptr %3, align 8, !tbaa !4
  %31 = getelementptr inbounds nuw %struct.AVProbeData, ptr %30, i32 0, i32 1
  %32 = load ptr, ptr %31, align 8, !tbaa !9
  %33 = getelementptr inbounds i8, ptr %32, i64 4
  %34 = load i32, ptr %33, align 1, !tbaa !13
  %35 = icmp ne i32 %34, 0
  br i1 %35, label %51, label %36

36:                                               ; preds = %29
  %37 = load ptr, ptr %3, align 8, !tbaa !4
  %38 = getelementptr inbounds nuw %struct.AVProbeData, ptr %37, i32 0, i32 1
  %39 = load ptr, ptr %38, align 8, !tbaa !9
  %40 = getelementptr inbounds i8, ptr %39, i64 12
  %41 = load i32, ptr %40, align 1, !tbaa !13
  %42 = icmp ne i32 %41, 0
  br i1 %42, label %43, label %51

43:                                               ; preds = %36
  %44 = load ptr, ptr %3, align 8, !tbaa !4
  %45 = getelementptr inbounds nuw %struct.AVProbeData, ptr %44, i32 0, i32 1
  %46 = load ptr, ptr %45, align 8, !tbaa !9
  %47 = getelementptr inbounds i8, ptr %46, i64 20
  %48 = load i32, ptr %47, align 1, !tbaa !13
  %49 = icmp ne i32 %48, 0
  br i1 %49, label %50, label %51

50:                                               ; preds = %43
  store i32 75, ptr %2, align 4
  br label %52

51:                                               ; preds = %43, %36, %29, %22, %16
  store i32 0, ptr %2, align 4
  br label %52

52:                                               ; preds = %51, %50
  %53 = load i32, ptr %2, align 4
  ret i32 %53
}