; Function Attrs: mustprogress nofree norecurse nosync nounwind willreturn memory(read, inaccessiblemem: none) uwtable
define internal range(i32 0, 76) i32 @epaf_probe(ptr noundef readonly captures(none) %0) #0 {
  %2 = getelementptr inbounds nuw i8, ptr %0, i64 8
  %3 = load ptr, ptr %2, align 8, !tbaa !4
  %4 = load i32, ptr %3, align 1, !tbaa !11
  switch i32 %4, label %.thread [
    i32 544235878, label %5
    i32 1717661728, label %9
  ]

5:                                                ; preds = %1
  %6 = getelementptr inbounds nuw i8, ptr %3, i64 8
  %7 = load i32, ptr %6, align 1, !tbaa !11
  %8 = icmp eq i32 %7, 1
  br i1 %8, label %13, label %.thread

9:                                                ; preds = %1
  %10 = getelementptr inbounds nuw i8, ptr %3, i64 8
  %11 = load i32, ptr %10, align 1, !tbaa !11
  %12 = icmp eq i32 %11, 0
  br i1 %12, label %13, label %.thread

13:                                               ; preds = %9, %5
  %14 = getelementptr inbounds nuw i8, ptr %3, i64 4
  %15 = load i32, ptr %14, align 1, !tbaa !11
  %.not = icmp eq i32 %15, 0
  br i1 %.not, label %16, label %.thread

16:                                               ; preds = %13
  %17 = getelementptr inbounds nuw i8, ptr %3, i64 12
  %18 = load i32, ptr %17, align 1, !tbaa !11
  %.not7 = icmp eq i32 %18, 0
  br i1 %.not7, label %.thread, label %19

19:                                               ; preds = %16
  %20 = getelementptr inbounds nuw i8, ptr %3, i64 20
  %21 = load i32, ptr %20, align 1, !tbaa !11
  %.not8 = icmp eq i32 %21, 0
  br i1 %.not8, label %.thread, label %22

.thread:                                          ; preds = %1, %5, %19, %16, %13, %9
  br label %22

22:                                               ; preds = %19, %.thread
  %.0 = phi i32 [ 0, %.thread ], [ 75, %19 ]
  ret i32 %.0
}